target datalayout = "e-m:e-p270:32:32-p271:32:32-p272:64:64-i64:64-i128:128-f80:128-n8:16:32:64-S128"
target triple = "x86_64-pc-linux-gnu"

%struct._priv_exr_context_t = type { i8, i8, i8, i8, i8, i8, i8, i8, %struct.exr_attr_string_t, %struct.exr_attr_string_t, ptr, ptr, ptr, ptr, ptr, ptr, ptr, ptr, i32, i32, i32, i32, i32, float, ptr, ptr, ptr, i64, ptr, ptr, i64, i32, i32, i32, i32, %struct._priv_exr_part_t, ptr, ptr, %struct.exr_attribute_list, %union.pthread_mutex_t, i8, i8, [2 x i8], i32 }
%struct.exr_attr_string_t = type { i32, i32, ptr }
%struct._priv_exr_part_t = type { i32, i32, %struct.exr_attribute_list, ptr, ptr, ptr, ptr, ptr, ptr, ptr, ptr, ptr, ptr, ptr, ptr, ptr, ptr, %struct.exr_attr_box2i_t, %struct.exr_attr_box2i_t, i32, i32, i32, float, i32, i32, ptr, ptr, ptr, ptr, i64, i16, i16, i32, i64, i64 }
%struct.exr_attr_box2i_t = type { %struct.exr_attr_v2i_t, %struct.exr_attr_v2i_t }
%struct.exr_attr_v2i_t = type { i32, i32 }
%struct.exr_attribute_list = type { i32, i32, ptr, ptr }
%union.pthread_mutex_t = type { %struct.__pthread_mutex_s }
%struct.__pthread_mutex_s = type { i32, i32, i32, i32, i32, i16, i16, %struct.__pthread_internal_list }
%struct.__pthread_internal_list = type { ptr, ptr }
%struct.exr_attribute_t = type { ptr, ptr, i8, i8, [2 x i8], i32, %union.anon }
%union.anon = type { double }
%struct.exr_attr_v2f_t = type { float, float }

@.str = private unnamed_addr constant [29 x i8] c"Part index (%d) out of range\00", align 1
@.str.4 = private unnamed_addr constant [46 x i8] c"Invalid required attribute type '%s' for '%s'\00", align 1
@.str.8 = private unnamed_addr constant [41 x i8] c"Missing value for data window assignment\00", align 1
@.str.13 = private unnamed_addr constant [19 x i8] c"screenWindowCenter\00", align 1

; Function Attrs: inlinehint nounwind uwtable
define internal void @internal_exr_unlock(ptr noundef %0) #2 {
  %2 = alloca ptr, align 8
  %3 = alloca ptr, align 8
  store ptr %0, ptr %2, align 8, !tbaa !3
  call void @llvm.lifetime.start.p0(i64 8, ptr %3) #8
  %4 = load ptr, ptr %2, align 8, !tbaa !3
  %5 = ptrtoint ptr %4 to i64
  %6 = inttoptr i64 %5 to ptr
  store ptr %6, ptr %3, align 8, !tbaa !3
  %7 = load ptr, ptr %3, align 8, !tbaa !3
  %8 = getelementptr inbounds nuw %struct._priv_exr_context_t, ptr %7, i32 0, i32 39
  %9 = call i32 @pthread_mutex_unlock(ptr noundef %8) #8
  call void @llvm.lifetime.end.p0(i64 8, ptr %3) #8
  ret void
}

; Function Attrs: inlinehint nounwind uwtable
define internal void @internal_exr_lock(ptr noundef %0) #2 {
  %2 = alloca ptr, align 8
  %3 = alloca ptr, align 8
  store ptr %0, ptr %2, align 8, !tbaa !3
  call void @llvm.lifetime.start.p0(i64 8, ptr %3) #8
  %4 = load ptr, ptr %2, align 8, !tbaa !3
  %5 = ptrtoint ptr %4 to i64
  %6 = inttoptr i64 %5 to ptr
  store ptr %6, ptr %3, align 8, !tbaa !3
  %7 = load ptr, ptr %3, align 8, !tbaa !3
  %8 = getelementptr inbounds nuw %struct._priv_exr_context_t, ptr %7, i32 0, i32 39
  %9 = call i32 @pthread_mutex_lock(ptr noundef %8) #8
  call void @llvm.lifetime.end.p0(i64 8, ptr %3) #8
  ret void
}

; Function Attrs: nounwind uwtable
define i32 @exr_set_screen_window_center(ptr noundef %0, i32 noundef %1, ptr noundef %2) #0 {
  %4 = alloca i32, align 4
  %5 = alloca ptr, align 8
  %6 = alloca i32, align 4
  %7 = alloca ptr, align 8
  %8 = alloca ptr, align 8
  %9 = alloca i32, align 4
  %10 = alloca ptr, align 8
  %11 = alloca i32, align 4
  store ptr %0, ptr %5, align 8, !tbaa !3
  store i32 %1, ptr %6, align 4, !tbaa !8
  store ptr %2, ptr %7, align 8, !tbaa !35
  call void @llvm.lifetime.start.p0(i64 8, ptr %8) #8
  store ptr null, ptr %8, align 8, !tbaa !35
  call void @llvm.lifetime.start.p0(i64 4, ptr %9) #8
  store i32 0, ptr %9, align 4, !tbaa !8
  call void @llvm.lifetime.start.p0(i64 8, ptr %10) #8
  %12 = load ptr, ptr %5, align 8, !tbaa !3
  %13 = icmp ne ptr %12, null
  br i1 %13, label %15, label %14

14:                                               ; preds = %3
  store i32 2, ptr %4, align 4
  store i32 1, ptr %11, align 4
  br label %134

15:                                               ; preds = %3
  %16 = load ptr, ptr %5, align 8, !tbaa !3
  call void @internal_exr_lock(ptr noundef %16)
  %17 = load i32, ptr %6, align 4, !tbaa !8
  %18 = icmp slt i32 %17, 0
  br i1 %18, label %25, label %19

19:                                               ; preds = %15
  %20 = load i32, ptr %6, align 4, !tbaa !8
  %21 = load ptr, ptr %5, align 8, !tbaa !3
  %22 = getelementptr inbounds nuw %struct._priv_exr_context_t, ptr %21, i32 0, i32 34
  %23 = load i32, ptr %22, align 4, !tbaa !26
  %24 = icmp sge i32 %20, %23
  br i1 %24, label %25, label %33

25:                                               ; preds = %19, %15
  %26 = load ptr, ptr %5, align 8, !tbaa !3
  call void @internal_exr_unlock(ptr noundef %26)
  %27 = load ptr, ptr %5, align 8, !tbaa !3
  %28 = getelementptr inbounds nuw %struct._priv_exr_context_t, ptr %27, i32 0, i32 14
  %29 = load ptr, ptr %28, align 8, !tbaa !27
  %30 = load ptr, ptr %5, align 8, !tbaa !3
  %31 = load i32, ptr %6, align 4, !tbaa !8
  %32 = call i32 (ptr, i32, ptr, ...) %29(ptr noundef %30, i32 noundef 4, ptr noundef @.str, i32 noundef %31)
  store i32 %32, ptr %4, align 4
  store i32 1, ptr %11, align 4
  br label %134

33:                                               ; preds = %19
  %34 = load ptr, ptr %5, align 8, !tbaa !3
  %35 = getelementptr inbounds nuw %struct._priv_exr_context_t, ptr %34, i32 0, i32 37
  %36 = load ptr, ptr %35, align 8, !tbaa !28
  %37 = load i32, ptr %6, align 4, !tbaa !8
  %38 = sext i32 %37 to i64
  %39 = getelementptr inbounds ptr, ptr %36, i64 %38
  %40 = load ptr, ptr %39, align 8, !tbaa !29
  store ptr %40, ptr %10, align 8, !tbaa !29
  %41 = load ptr, ptr %5, align 8, !tbaa !3
  %42 = getelementptr inbounds nuw %struct._priv_exr_context_t, ptr %41, i32 0, i32 0
  %43 = load i8, ptr %42, align 8, !tbaa !12
  %44 = zext i8 %43 to i32
  %45 = icmp eq i32 %44, 0
  br i1 %45, label %46, label %53

46:                                               ; preds = %33
  %47 = load ptr, ptr %5, align 8, !tbaa !3
  call void @internal_exr_unlock(ptr noundef %47)
  %48 = load ptr, ptr %5, align 8, !tbaa !3
  %49 = getelementptr inbounds nuw %struct._priv_exr_context_t, ptr %48, i32 0, i32 12
  %50 = load ptr, ptr %49, align 8, !tbaa !31
  %51 = load ptr, ptr %5, align 8, !tbaa !3
  %52 = call i32 %50(ptr noundef %51, i32 noundef 8)
  store i32 %52, ptr %4, align 4
  store i32 1, ptr %11, align 4
  br label %134

53:                                               ; preds = %33
  %54 = load ptr, ptr %5, align 8, !tbaa !3
  %55 = getelementptr inbounds nuw %struct._priv_exr_context_t, ptr %54, i32 0, i32 0
  %56 = load i8, ptr %55, align 8, !tbaa !12
  %57 = zext i8 %56 to i32
  %58 = icmp eq i32 %57, 3
  br i1 %58, label %59, label %66

59:                                               ; preds = %53
  %60 = load ptr, ptr %5, align 8, !tbaa !3
  call void @internal_exr_unlock(ptr noundef %60)
  %61 = load ptr, ptr %5, align 8, !tbaa !3
  %62 = getelementptr inbounds nuw %struct._priv_exr_context_t, ptr %61, i32 0, i32 12
  %63 = load ptr, ptr %62, align 8, !tbaa !31
  %64 = load ptr, ptr %5, align 8, !tbaa !3
  %65 = call i32 %63(ptr noundef %64, i32 noundef 21)
  store i32 %65, ptr %4, align 4
  store i32 1, ptr %11, align 4
  br label %134

66:                                               ; preds = %53
  %67 = load ptr, ptr %10, align 8, !tbaa !29
  %68 = getelementptr inbounds nuw %struct._priv_exr_part_t, ptr %67, i32 0, i32 9
  %69 = load ptr, ptr %68, align 8, !tbaa !52
  %70 = icmp ne ptr %69, null
  br i1 %70, label %78, label %71

71:                                               ; preds = %66
  %72 = load ptr, ptr %5, align 8, !tbaa !3
  %73 = load ptr, ptr %10, align 8, !tbaa !29
  %74 = getelementptr inbounds nuw %struct._priv_exr_part_t, ptr %73, i32 0, i32 2
  %75 = load ptr, ptr %10, align 8, !tbaa !29
  %76 = getelementptr inbounds nuw %struct._priv_exr_part_t, ptr %75, i32 0, i32 9
  %77 = call i32 @exr_attr_list_add(ptr noundef %72, ptr noundef %74, ptr noundef @.str.13, i32 noundef 24, i32 noundef 0, ptr noundef null, ptr noundef %76)
  store i32 %77, ptr %9, align 4, !tbaa !8
  br label %98

78:                                               ; preds = %66
  %79 = load ptr, ptr %10, align 8, !tbaa !29
  %80 = getelementptr inbounds nuw %struct._priv_exr_part_t, ptr %79, i32 0, i32 9
  %81 = load ptr, ptr %80, align 8, !tbaa !52
  %82 = getelementptr inbounds nuw %struct.exr_attribute_t, ptr %81, i32 0, i32 5
  %83 = load i32, ptr %82, align 4, !tbaa !39
  %84 = icmp ne i32 %83, 24
  br i1 %84, label %85, label %97

85:                                               ; preds = %78
  %86 = load ptr, ptr %5, align 8, !tbaa !3
  call void @internal_exr_unlock(ptr noundef %86)
  %87 = load ptr, ptr %5, align 8, !tbaa !3
  %88 = getelementptr inbounds nuw %struct._priv_exr_context_t, ptr %87, i32 0, i32 14
  %89 = load ptr, ptr %88, align 8, !tbaa !27
  %90 = load ptr, ptr %5, align 8, !tbaa !3
  %91 = load ptr, ptr %10, align 8, !tbaa !29
  %92 = getelementptr inbounds nuw %struct._priv_exr_part_t, ptr %91, i32 0, i32 9
  %93 = load ptr, ptr %92, align 8, !tbaa !52
  %94 = getelementptr inbounds nuw %struct.exr_attribute_t, ptr %93, i32 0, i32 1
  %95 = load ptr, ptr %94, align 8, !tbaa !41
  %96 = call i32 (ptr, i32, ptr, ...) %89(ptr noundef %90, i32 noundef 6, ptr noundef @.str.4, ptr noundef %95, ptr noundef @.str.13)
  store i32 %96, ptr %4, align 4
  store i32 1, ptr %11, align 4
  br label %134

97:                                               ; preds = %78
  br label %98

98:                                               ; preds = %97, %71
  %99 = load ptr, ptr %10, align 8, !tbaa !29
  %100 = getelementptr inbounds nuw %struct._priv_exr_part_t, ptr %99, i32 0, i32 9
  %101 = load ptr, ptr %100, align 8, !tbaa !52
  store ptr %101, ptr %8, align 8, !tbaa !35
  %102 = load i32, ptr %9, align 4, !tbaa !8
  %103 = icmp ne i32 %102, 0
  br i1 %103, label %104, label %107

104:                                              ; preds = %98
  %105 = load ptr, ptr %5, align 8, !tbaa !3
  call void @internal_exr_unlock(ptr noundef %105)
  %106 = load i32, ptr %9, align 4, !tbaa !8
  store i32 %106, ptr %4, align 4
  store i32 1, ptr %11, align 4
  br label %134

107:                                              ; preds = %98
  %108 = load ptr, ptr %7, align 8, !tbaa !35
  %109 = icmp ne ptr %108, null
  br i1 %109, label %117, label %110

110:                                              ; preds = %107
  %111 = load ptr, ptr %5, align 8, !tbaa !3
  call void @internal_exr_unlock(ptr noundef %111)
  %112 = load ptr, ptr %5, align 8, !tbaa !3
  %113 = getelementptr inbounds nuw %struct._priv_exr_context_t, ptr %112, i32 0, i32 13
  %114 = load ptr, ptr %113, align 8, !tbaa !45
  %115 = load ptr, ptr %5, align 8, !tbaa !3
  %116 = call i32 %114(ptr noundef %115, i32 noundef 3, ptr noundef @.str.8)
  store i32 %116, ptr %4, align 4
  store i32 1, ptr %11, align 4
  br label %134

117:                                              ; preds = %107
  %118 = load ptr, ptr %7, align 8, !tbaa !35
  %119 = getelementptr inbounds nuw %struct.exr_attr_v2f_t, ptr %118, i32 0, i32 0
  %120 = load float, ptr %119, align 1, !tbaa !53
  %121 = load ptr, ptr %8, align 8, !tbaa !35
  %122 = getelementptr inbounds nuw %struct.exr_attribute_t, ptr %121, i32 0, i32 6
  %123 = load ptr, ptr %122, align 8, !tbaa !42
  %124 = getelementptr inbounds nuw %struct.exr_attr_v2f_t, ptr %123, i32 0, i32 0
  store float %120, ptr %124, align 1, !tbaa !53
  %125 = load ptr, ptr %7, align 8, !tbaa !35
  %126 = getelementptr inbounds nuw %struct.exr_attr_v2f_t, ptr %125, i32 0, i32 1
  %127 = load float, ptr %126, align 1, !tbaa !55
  %128 = load ptr, ptr %8, align 8, !tbaa !35
  %129 = getelementptr inbounds nuw %struct.exr_attribute_t, ptr %128, i32 0, i32 6
  %130 = load ptr, ptr %129, align 8, !tbaa !42
  %131 = getelementptr inbounds nuw %struct.exr_attr_v2f_t, ptr %130, i32 0, i32 1
  store float %127, ptr %131, align 1, !tbaa !55
  %132 = load ptr, ptr %5, align 8, !tbaa !3
  call void @internal_exr_unlock(ptr noundef %132)
  %133 = load i32, ptr %9, align 4, !tbaa !8
  store i32 %133, ptr %4, align 4
  store i32 1, ptr %11, align 4
  br label %134

134:                                              ; preds = %117, %110, %104, %85, %59, %46, %25, %14
  call void @llvm.lifetime.end.p0(i64 8, ptr %10) #8
  call void @llvm.lifetime.end.p0(i64 4, ptr %9) #8
  call void @llvm.lifetime.end.p0(i64 8, ptr %8) #8
  %135 = load i32, ptr %4, align 4
  ret i32 %135
}