; Function Attrs: nounwind uwtable
define i32 @exr_set_screen_window_center(ptr noundef %0, i32 noundef %1, ptr noundef readonly %2) local_unnamed_addr #0 {
  %.not = icmp eq ptr %0, null
  br i1 %.not, label %67, label %4

4:                                                ; preds = %3
  %5 = getelementptr inbounds nuw i8, ptr %0, i64 504
  %6 = tail call i32 @pthread_mutex_lock(ptr noundef nonnull %5) #6
  %7 = icmp slt i32 %1, 0
  br i1 %7, label %11, label %8

8:                                                ; preds = %4
  %9 = getelementptr inbounds nuw i8, ptr %0, i64 196
  %10 = load i32, ptr %9, align 4, !tbaa !22
  %.not48 = icmp slt i32 %1, %10
  br i1 %.not48, label %16, label %11

11:                                               ; preds = %8, %4
  %12 = tail call i32 @pthread_mutex_unlock(ptr noundef nonnull %5) #6
  %13 = getelementptr inbounds nuw i8, ptr %0, i64 72
  %14 = load ptr, ptr %13, align 8, !tbaa !23
  %15 = tail call i32 (ptr, i32, ptr, ...) %14(ptr noundef nonnull %0, i32 noundef 4, ptr noundef nonnull @.str, i32 noundef %1) #6
  br label %67

16:                                               ; preds = %8
  %17 = getelementptr inbounds nuw i8, ptr %0, i64 472
  %18 = load ptr, ptr %17, align 8, !tbaa !24
  %19 = zext nneg i32 %1 to i64
  %20 = getelementptr inbounds nuw ptr, ptr %18, i64 %19
  %21 = load ptr, ptr %20, align 8, !tbaa !25
  %22 = load i8, ptr %0, align 8, !tbaa !3
  switch i8 %22, label %33 [
    i8 0, label %23
    i8 3, label %28
  ]

23:                                               ; preds = %16
  %24 = tail call i32 @pthread_mutex_unlock(ptr noundef nonnull %5) #6
  %25 = getelementptr inbounds nuw i8, ptr %0, i64 56
  %26 = load ptr, ptr %25, align 8, !tbaa !27
  %27 = tail call i32 %26(ptr noundef nonnull %0, i32 noundef 8) #6
  br label %67

28:                                               ; preds = %16
  %29 = tail call i32 @pthread_mutex_unlock(ptr noundef nonnull %5) #6
  %30 = getelementptr inbounds nuw i8, ptr %0, i64 56
  %31 = load ptr, ptr %30, align 8, !tbaa !27
  %32 = tail call i32 %31(ptr noundef nonnull %0, i32 noundef 21) #6
  br label %67

33:                                               ; preds = %16
  %34 = getelementptr inbounds nuw i8, ptr %21, i64 80
  %35 = load ptr, ptr %34, align 8, !tbaa !45
  %.not49 = icmp eq ptr %35, null
  br i1 %.not49, label %47, label %36

36:                                               ; preds = %33
  %37 = getelementptr inbounds nuw i8, ptr %35, i64 20
  %38 = load i32, ptr %37, align 4, !tbaa !32
  %.not50 = icmp eq i32 %38, 24
  br i1 %.not50, label %.thread, label %39

39:                                               ; preds = %36
  %40 = tail call i32 @pthread_mutex_unlock(ptr noundef nonnull %5) #6
  %41 = getelementptr inbounds nuw i8, ptr %0, i64 72
  %42 = load ptr, ptr %41, align 8, !tbaa !23
  %43 = load ptr, ptr %34, align 8, !tbaa !45
  %44 = getelementptr inbounds nuw i8, ptr %43, i64 8
  %45 = load ptr, ptr %44, align 8, !tbaa !34
  %46 = tail call i32 (ptr, i32, ptr, ...) %42(ptr noundef nonnull %0, i32 noundef 6, ptr noundef nonnull @.str.4, ptr noundef %45, ptr noundef nonnull @.str.13) #6
  br label %67

47:                                               ; preds = %33
  %48 = getelementptr inbounds nuw i8, ptr %21, i64 8
  %49 = tail call i32 @exr_attr_list_add(ptr noundef nonnull %0, ptr noundef nonnull %48, ptr noundef nonnull @.str.13, i32 noundef 24, i32 noundef 0, ptr noundef null, ptr noundef nonnull %34) #6
  %.not51 = icmp eq i32 %49, 0
  br i1 %.not51, label %.thread, label %50

50:                                               ; preds = %47
  %51 = tail call i32 @pthread_mutex_unlock(ptr noundef nonnull %5) #6
  br label %67

.thread:                                          ; preds = %36, %47
  %.not52 = icmp eq ptr %2, null
  br i1 %.not52, label %52, label %57

52:                                               ; preds = %.thread
  %53 = tail call i32 @pthread_mutex_unlock(ptr noundef nonnull %5) #6
  %54 = getelementptr inbounds nuw i8, ptr %0, i64 64
  %55 = load ptr, ptr %54, align 8, !tbaa !38
  %56 = tail call i32 %55(ptr noundef nonnull %0, i32 noundef 3, ptr noundef nonnull @.str.8) #6
  br label %67

57:                                               ; preds = %.thread
  %58 = load ptr, ptr %34, align 8, !tbaa !45
  %59 = load float, ptr %2, align 1, !tbaa !46
  %60 = getelementptr inbounds nuw i8, ptr %58, i64 24
  %61 = load ptr, ptr %60, align 8, !tbaa !35
  store float %59, ptr %61, align 1, !tbaa !46
  %62 = getelementptr inbounds nuw i8, ptr %2, i64 4
  %63 = load float, ptr %62, align 1, !tbaa !48
  %64 = load ptr, ptr %60, align 8, !tbaa !35
  %65 = getelementptr inbounds nuw i8, ptr %64, i64 4
  store float %63, ptr %65, align 1, !tbaa !48
  %66 = tail call i32 @pthread_mutex_unlock(ptr noundef nonnull %5) #6
  br label %67

67:                                               ; preds = %3, %57, %52, %50, %39, %28, %23, %11
  %.0 = phi i32 [ %15, %11 ], [ %27, %23 ], [ %32, %28 ], [ %46, %39 ], [ %49, %50 ], [ 0, %57 ], [ %56, %52 ], [ 2, %3 ]
  ret i32 %.0
}